target datalayout = "e-m:e-p270:32:32-p271:32:32-p272:64:64-i64:64-i128:128-f80:128-n8:16:32:64-S128"
target triple = "x86_64-pc-linux-gnu"

%struct.stbcc__cluster_build_info = type { [32 x [32 x %struct.stbcc__tinypoint]], [32 x [32 x i16]] }
%struct.stbcc__tinypoint = type { i8, i8 }

; Function Attrs: nounwind uwtable
define void @stbcc__incluster_union(ptr noundef %0, i32 noundef %1, i32 noundef %2, i32 noundef %3, i32 noundef %4) #0 {
  %6 = alloca ptr, align 8
  %7 = alloca i32, align 4
  %8 = alloca i32, align 4
  %9 = alloca i32, align 4
  %10 = alloca i32, align 4
  %11 = alloca %struct.stbcc__tinypoint, align 1
  %12 = alloca %struct.stbcc__tinypoint, align 1
  %13 = alloca i32, align 4
  store ptr %0, ptr %6, align 8, !tbaa !14
  store i32 %1, ptr %7, align 4, !tbaa !8
  store i32 %2, ptr %8, align 4, !tbaa !8
  store i32 %3, ptr %9, align 4, !tbaa !8
  store i32 %4, ptr %10, align 4, !tbaa !8
  call void @llvm.lifetime.start.p0(i64 2, ptr %11) #4
  %14 = load ptr, ptr %6, align 8, !tbaa !14
  %15 = load i32, ptr %7, align 4, !tbaa !8
  %16 = load i32, ptr %8, align 4, !tbaa !8
  %17 = call i16 @stbcc__incluster_find(ptr noundef %14, i32 noundef %15, i32 noundef %16)
  store i16 %17, ptr %11, align 1
  call void @llvm.lifetime.start.p0(i64 2, ptr %12) #4
  %18 = load ptr, ptr %6, align 8, !tbaa !14
  %19 = load i32, ptr %9, align 4, !tbaa !8
  %20 = load i32, ptr %10, align 4, !tbaa !8
  %21 = call i16 @stbcc__incluster_find(ptr noundef %18, i32 noundef %19, i32 noundef %20)
  store i16 %21, ptr %12, align 1
  %22 = getelementptr inbounds nuw %struct.stbcc__tinypoint, ptr %11, i32 0, i32 0
  %23 = load i8, ptr %22, align 1, !tbaa !46
  %24 = zext i8 %23 to i32
  %25 = getelementptr inbounds nuw %struct.stbcc__tinypoint, ptr %12, i32 0, i32 0
  %26 = load i8, ptr %25, align 1, !tbaa !46
  %27 = zext i8 %26 to i32
  %28 = icmp eq i32 %24, %27
  br i1 %28, label %29, label %38

29:                                               ; preds = %5
  %30 = getelementptr inbounds nuw %struct.stbcc__tinypoint, ptr %11, i32 0, i32 1
  %31 = load i8, ptr %30, align 1, !tbaa !48
  %32 = zext i8 %31 to i32
  %33 = getelementptr inbounds nuw %struct.stbcc__tinypoint, ptr %12, i32 0, i32 1
  %34 = load i8, ptr %33, align 1, !tbaa !48
  %35 = zext i8 %34 to i32
  %36 = icmp eq i32 %32, %35
  br i1 %36, label %37, label %38

37:                                               ; preds = %29
  store i32 1, ptr %13, align 4
  br label %49

38:                                               ; preds = %29, %5
  %39 = load ptr, ptr %6, align 8, !tbaa !14
  %40 = getelementptr inbounds nuw %struct.stbcc__cluster_build_info, ptr %39, i32 0, i32 0
  %41 = getelementptr inbounds nuw %struct.stbcc__tinypoint, ptr %11, i32 0, i32 1
  %42 = load i8, ptr %41, align 1, !tbaa !48
  %43 = zext i8 %42 to i64
  %44 = getelementptr inbounds nuw [32 x [32 x %struct.stbcc__tinypoint]], ptr %40, i64 0, i64 %43
  %45 = getelementptr inbounds nuw %struct.stbcc__tinypoint, ptr %11, i32 0, i32 0
  %46 = load i8, ptr %45, align 1, !tbaa !46
  %47 = zext i8 %46 to i64
  %48 = getelementptr inbounds nuw [32 x %struct.stbcc__tinypoint], ptr %44, i64 0, i64 %47
  call void @llvm.memcpy.p0.p0.i64(ptr align 2 %48, ptr align 1 %12, i64 2, i1 false), !tbaa.struct !58
  store i32 0, ptr %13, align 4
  br label %49

49:                                               ; preds = %38, %37
  call void @llvm.lifetime.end.p0(i64 2, ptr %12) #4
  call void @llvm.lifetime.end.p0(i64 2, ptr %11) #4
  %50 = load i32, ptr %13, align 4
  switch i32 %50, label %52 [
    i32 0, label %51
    i32 1, label %51
  ]

51:                                               ; preds = %49, %49
  ret void

52:                                               ; preds = %49
  unreachable
}