; Function Attrs: nofree nosync nounwind memory(argmem: readwrite) uwtable
define void @stbcc__incluster_union(ptr noundef captures(none) %0, i32 noundef %1, i32 noundef %2, i32 noundef %3, i32 noundef %4) local_unnamed_addr #3 {
  %6 = tail call i16 @stbcc__incluster_find(ptr noundef %0, i32 noundef %1, i32 noundef %2)
  %.sroa.53.0.extract.shift = lshr i16 %6, 8
  %7 = tail call i16 @stbcc__incluster_find(ptr noundef %0, i32 noundef %3, i32 noundef %4)
  %.sroa.5.0.extract.shift = lshr i16 %7, 8
  %8 = xor i16 %7, %6
  %9 = and i16 %8, 255
  %10 = icmp eq i16 %9, 0
  %11 = icmp eq i16 %.sroa.53.0.extract.shift, %.sroa.5.0.extract.shift
  %or.cond = select i1 %10, i1 %11, i1 false
  br i1 %or.cond, label %16, label %12

12:                                               ; preds = %5
  %.sroa.5.0.extract.trunc = trunc nuw i16 %.sroa.5.0.extract.shift to i8
  %.sroa.0.0.extract.trunc = trunc i16 %7 to i8
  %.sroa.53.0.extract.trunc = zext nneg i16 %.sroa.53.0.extract.shift to i64
  %13 = and i16 %6, 255
  %14 = zext nneg i16 %13 to i64
  %15 = getelementptr inbounds nuw [32 x [32 x %struct.stbcc__tinypoint]], ptr %0, i64 0, i64 %.sroa.53.0.extract.trunc, i64 %14
  store i8 %.sroa.0.0.extract.trunc, ptr %15, align 2, !tbaa !7
  %.sroa.5.0..sroa_idx = getelementptr inbounds nuw i8, ptr %15, i64 1
  store i8 %.sroa.5.0.extract.trunc, ptr %.sroa.5.0..sroa_idx, align 1, !tbaa !7
  br label %16

16:                                               ; preds = %5, %12
  ret void
}